(lp1
S'19:47 wielki test botow'
p2
aS'19:47 okazuje sie ze mozna miec wiele botow podpietych naraz reagujacych jednoczesnie'
p3
aS'19:49 -- PONIEDZIALEK 7.08 oficjalny test PiBota w biurze :D'
p4
aS'19:50 *********'
p5
aS'19:50 The new PiBot terminal UI is here!'
p6
aS'19:50 it looks as good as any other curses library'
p7
aS'19:51 but it is easy to use and super fast'
p8
aS'[!] ***'
p9
aS'[!] *** Kolejna, godzina za nami!'
p10
ag9
a.