(lp1
S'11:21 ??kowa'
p2
aS'11:22 polskie znaki szczeg?lne s? bardzo trudnymi znakami'
p3
aS'21:14 test 0.11'
p4
aS'21:22 wyglada na to ze przeniesienie display do osobnej klasy dziala poprawnie :)'
p5
aS'[!] ***'
p6
aS'[!] *** Jest teraz 18.0 stopni Celsjusza. Zachmurzenie 40%. Wieje z predkoscia 2.6 km/h.'
p7
ag6
aS'21:45 x'
p8
a.