(lp1
S'      ***'
p2
aS'      *** Jest teraz 23.0 stopni Celsjusza (max: 23.0). Zachmurzenie 75%. Wieje z predkoscia 1.5 km/h.'
p3
ag2
aS'14:02 Whiteboard is strangly empty...'
p4
aS'14:02 but now we have forecasts and other sheduled PSAs :)'
p5
a.