(lp1
S'      ***'
p2
aS'      *** Jest teraz 23.0 stopni Celsjusza (max: 23.0). Zachmurzenie 75%. Wieje z predkoscia 1.5 km/h.'
p3
ag2
aS'14:02 Whiteboard is strangly empty...'
p4
aS'14:02 but now we have forecasts and other sheduled PSAs :)'
p5
aS'10:27 testujemy gadanie'
p6
aS'10:30 witam wszystkich'
p7
aS'10:34 umiem mowic po polsku ale bez polskich znakow'
p8
aS'10:35 wybila godzina 20-sta'
p9
aS'10:35 kto idzie na fajke?'
p10
a.